target datalayout = "e-m:e-p270:32:32-p271:32:32-p272:64:64-i64:64-i128:128-f80:128-n8:16:32:64-S128"
target triple = "x86_64-pc-linux-gnu"

%struct.redisServer = type { i32, i64, ptr, ptr, ptr, i32, i32, i32, i32, i32, ptr, ptr, ptr, ptr, ptr, i32, i32, i32, i32, i64, i32, i32, i32, i32, ptr, i32, i32, [41 x i8], i32, i64, i32, i32, i32, ptr, ptr, i32, i32, i64, ptr, ptr, ptr, ptr, [2 x i32], i32, i32, i32, i32, i32, i32, [16 x ptr], i32, ptr, ptr, i32, [8 x %struct.connListener], i32, %struct.connListener, ptr, ptr, ptr, ptr, ptr, ptr, ptr, ptr, ptr, ptr, i32, ptr, i32, ptr, [3 x %struct.pause_event], [256 x i8], ptr, i64, i32, i32, [128 x i32], i32, i32, i64, i32, i32, i32, i32, i32, i64, i64, i64, i64, i64, i64, i64, i64, i64, i64, double, i64, i64, i64, i64, i64, i64, i64, i64, i64, i64, i64, i64, i64, i64, i64, i64, i64, i64, i64, i64, i64, double, i64, i64, i64, i64, i64, ptr, i64, i64, i64, %struct.malloc_stats, i64, i64, i64, i64, i64, i64, i64, i64, i64, i64, i64, i64, double, [4 x i64], i64, i64, i64, i64, [128 x i64], [128 x i64], i64, i64, [7 x %struct.anon], i64, i64, i64, i64, i64, i64, [4 x %struct.durationStats], i32, i32, i32, i32, i32, i32, i32, i32, i32, i32, i32, i32, i64, i32, i32, i32, i32, i64, i64, i32, i32, i32, i32, i32, ptr, [3 x %struct.clientBufferLimitsConfig], i32, i32, i32, ptr, i32, i32, i32, i32, i32, i32, ptr, ptr, i32, i32, i64, i64, i64, i64, i64, i32, i32, ptr, i32, i32, i64, i64, i64, i64, i64, i32, i32, i64, i32, i32, i32, i32, i32, i32, i32, i32, ptr, i32, i64, i64, i64, i64, i32, ptr, i32, ptr, i32, i32, i32, i64, i64, i64, i64, i32, i32, i32, i32, i32, i32, ptr, i32, i32, ptr, i32, i32, i32, [2 x i32], i32, %struct.redisOpArray, i32, ptr, i32, ptr, i32, i32, i32, i32, i32, i32, i32, [41 x i8], [41 x i8], i64, i64, i64, i64, i32, i32, ptr, i64, i64, %struct.replDataBuf, i64, i64, i32, i32, i32, i32, i32, i32, i32, i32, i32, i64, ptr, i64, ptr, ptr, ptr, i32, i32, ptr, ptr, i32, i32, i32, i64, i64, i64, i64, ptr, ptr, i32, ptr, i64, i32, i32, i32, i64, i32, i32, i32, i32, ptr, i32, i32, [41 x i8], i64, i32, ptr, i32, i32, i64, i64, i32, i32, i32, i32, i32, i64, [3 x i32], i32, i32, i32, [10 x i32], ptr, ptr, i32, i64, ptr, ptr, i32, i32, i32, i32, i64, i64, i64, i64, i64, i64, i64, i64, i64, i64, i32, i32, i64, i64, i32, i64, i64, i64, i64, i64, ptr, ptr, i32, ptr, i32, i32, i32, i32, i64, i64, ptr, ptr, i32, i32, i32, i32, i32, ptr, ptr, ptr, i32, i32, i32, i32, i32, i32, i32, i64, i32, i32, i64, i32, i32, i32, i32, i32, i32, i32, i64, ptr, ptr, i64, ptr, i32, %struct.aclInfo, i32, i64, i32, i32, i32, %struct.redisTLSContextConfig, ptr, ptr, ptr, ptr, ptr, i64, i32, ptr, i32, i32, i32, i64, i32, ptr }
%struct.connListener = type { [16 x i32], i32, ptr, i32, i32, ptr, ptr }
%struct.pause_event = type { i32, i64 }
%struct.malloc_stats = type { i64, i64, i64, i64, i64, i64, i64, i64, i64, i64, i64 }
%struct.anon = type { i64, i64, [16 x i64], i32 }
%struct.durationStats = type { i64, i64, i64 }
%struct.clientBufferLimitsConfig = type { i64, i64, i64 }
%struct.redisOpArray = type { ptr, i32, i32 }
%struct.replDataBuf = type { ptr, i64, i64, i64, i64 }
%struct.aclInfo = type { i64, i64, i64, i64 }
%struct.redisTLSContextConfig = type { ptr, ptr, ptr, ptr, ptr, ptr, ptr, ptr, ptr, ptr, ptr, ptr, i32, i32, i32, i32 }
%struct.connection = type { ptr, i32, i32, i32, i16, i16, i16, ptr, ptr, ptr, ptr, ptr }

@server = external global %struct.redisServer, align 8
@.str.1 = private unnamed_addr constant [32 x i8] c"Accepting client connection: %s\00", align 1
@.str.2 = private unnamed_addr constant [26 x i8] c"Accepted connection to %s\00", align 1

; Function Attrs: nounwind uwtable
define internal ptr @connCreateUnix(ptr noundef %0) #0 {
  %2 = alloca ptr, align 8
  %3 = alloca ptr, align 8
  store ptr %0, ptr %2, align 8, !tbaa !10
  call void @llvm.lifetime.start.p0(i64 8, ptr %3) #7
  %4 = call noalias ptr @zcalloc(i64 noundef 72) #10
  store ptr %4, ptr %3, align 8, !tbaa !5
  %5 = load ptr, ptr %3, align 8, !tbaa !5
  %6 = getelementptr inbounds nuw %struct.connection, ptr %5, i32 0, i32 0
  store ptr @CT_Unix, ptr %6, align 8, !tbaa !61
  %7 = load ptr, ptr %3, align 8, !tbaa !5
  %8 = getelementptr inbounds nuw %struct.connection, ptr %7, i32 0, i32 3
  store i32 -1, ptr %8, align 8, !tbaa !64
  %9 = load ptr, ptr %3, align 8, !tbaa !5
  %10 = getelementptr inbounds nuw %struct.connection, ptr %9, i32 0, i32 6
  store i16 1024, ptr %10, align 8, !tbaa !65
  %11 = load ptr, ptr %2, align 8, !tbaa !10
  %12 = load ptr, ptr %3, align 8, !tbaa !5
  %13 = getelementptr inbounds nuw %struct.connection, ptr %12, i32 0, i32 8
  store ptr %11, ptr %13, align 8, !tbaa !66
  %14 = load ptr, ptr %3, align 8, !tbaa !5
  call void @llvm.lifetime.end.p0(i64 8, ptr %3) #7
  ret ptr %14
}

; Function Attrs: nounwind uwtable
define internal ptr @connCreateAcceptedUnix(ptr noundef %0, i32 noundef %1, ptr noundef %2) #0 {
  %4 = alloca ptr, align 8
  %5 = alloca i32, align 4
  %6 = alloca ptr, align 8
  %7 = alloca ptr, align 8
  store ptr %0, ptr %4, align 8, !tbaa !10
  store i32 %1, ptr %5, align 4, !tbaa !12
  store ptr %2, ptr %6, align 8, !tbaa !14
  call void @llvm.lifetime.start.p0(i64 8, ptr %7) #7
  %8 = load ptr, ptr %4, align 8, !tbaa !10
  %9 = call ptr @connCreateUnix(ptr noundef %8)
  store ptr %9, ptr %7, align 8, !tbaa !5
  %10 = load i32, ptr %5, align 4, !tbaa !12
  %11 = load ptr, ptr %7, align 8, !tbaa !5
  %12 = getelementptr inbounds nuw %struct.connection, ptr %11, i32 0, i32 3
  store i32 %10, ptr %12, align 8, !tbaa !64
  %13 = load ptr, ptr %7, align 8, !tbaa !5
  %14 = getelementptr inbounds nuw %struct.connection, ptr %13, i32 0, i32 1
  store i32 2, ptr %14, align 8, !tbaa !67
  %15 = load ptr, ptr %7, align 8, !tbaa !5
  call void @llvm.lifetime.end.p0(i64 8, ptr %7) #7
  ret ptr %15
}

; Function Attrs: nounwind uwtable
define internal void @connUnixAcceptHandler(ptr noundef %0, i32 noundef %1, ptr noundef %2, i32 noundef %3) #0 {
  %5 = alloca ptr, align 8
  %6 = alloca i32, align 4
  %7 = alloca ptr, align 8
  %8 = alloca i32, align 4
  %9 = alloca i32, align 4
  %10 = alloca i32, align 4
  %11 = alloca i32, align 4
  store ptr %0, ptr %5, align 8, !tbaa !10
  store i32 %1, ptr %6, align 4, !tbaa !12
  store ptr %2, ptr %7, align 8, !tbaa !14
  store i32 %3, ptr %8, align 4, !tbaa !12
  call void @llvm.lifetime.start.p0(i64 4, ptr %9) #7
  call void @llvm.lifetime.start.p0(i64 4, ptr %10) #7
  %12 = load i32, ptr getelementptr inbounds nuw (%struct.redisServer, ptr @server, i32 0, i32 191), align 8, !tbaa !17
  store i32 %12, ptr %10, align 4, !tbaa !12
  br label %13

13:                                               ; preds = %43, %4
  %14 = load i32, ptr %10, align 4, !tbaa !12
  %15 = add nsw i32 %14, -1
  store i32 %15, ptr %10, align 4, !tbaa !12
  %16 = icmp ne i32 %14, 0
  br i1 %16, label %17, label %47

17:                                               ; preds = %13
  %18 = load i32, ptr %6, align 4, !tbaa !12
  %19 = call i32 @anetUnixAccept(ptr noundef getelementptr inbounds nuw (%struct.redisServer, ptr @server, i32 0, i32 72), i32 noundef %18)
  store i32 %19, ptr %9, align 4, !tbaa !12
  %20 = load i32, ptr %9, align 4, !tbaa !12
  %21 = icmp eq i32 %20, -1
  br i1 %21, label %22, label %35

22:                                               ; preds = %17
  %23 = call ptr @__errno_location() #8
  %24 = load i32, ptr %23, align 4, !tbaa !12
  %25 = icmp ne i32 %24, 11
  br i1 %25, label %26, label %34

26:                                               ; preds = %22
  br label %27

27:                                               ; preds = %26
  %28 = load i32, ptr getelementptr inbounds nuw (%struct.redisServer, ptr @server, i32 0, i32 159), align 8, !tbaa !44
  %29 = icmp slt i32 3, %28
  br i1 %29, label %30, label %31

30:                                               ; preds = %27
  br label %33

31:                                               ; preds = %27
  call void (i32, ptr, ...) @_serverLog(i32 noundef 3, ptr noundef @.str.1, ptr noundef getelementptr inbounds nuw (%struct.redisServer, ptr @server, i32 0, i32 72))
  br label %32

32:                                               ; preds = %31
  br label %33

33:                                               ; preds = %32, %30
  br label %34

34:                                               ; preds = %33, %22
  store i32 1, ptr %11, align 4
  br label %48

35:                                               ; preds = %17
  br label %36

36:                                               ; preds = %35
  %37 = load i32, ptr getelementptr inbounds nuw (%struct.redisServer, ptr @server, i32 0, i32 159), align 8, !tbaa !44
  %38 = icmp slt i32 1, %37
  br i1 %38, label %39, label %40

39:                                               ; preds = %36
  br label %43

40:                                               ; preds = %36
  %41 = load ptr, ptr getelementptr inbounds nuw (%struct.redisServer, ptr @server, i32 0, i32 52), align 8, !tbaa !45
  call void (i32, ptr, ...) @_serverLog(i32 noundef 1, ptr noundef @.str.2, ptr noundef %41)
  br label %42

42:                                               ; preds = %40
  br label %43

43:                                               ; preds = %42, %39
  %44 = load ptr, ptr %5, align 8, !tbaa !10
  %45 = load i32, ptr %9, align 4, !tbaa !12
  %46 = call ptr @connCreateAcceptedUnix(ptr noundef %44, i32 noundef %45, ptr noundef null)
  call void @acceptCommonHandler(ptr noundef %46, i32 noundef 2048, ptr noundef null)
  br label %13, !llvm.loop !46

47:                                               ; preds = %13
  store i32 0, ptr %11, align 4
  br label %48

48:                                               ; preds = %47, %34
  call void @llvm.lifetime.end.p0(i64 4, ptr %10) #7
  call void @llvm.lifetime.end.p0(i64 4, ptr %9) #7
  %49 = load i32, ptr %11, align 4
  switch i32 %49, label %51 [
    i32 0, label %50
    i32 1, label %50
  ]

50:                                               ; preds = %48, %48
  ret void

51:                                               ; preds = %48
  unreachable
}