; Function Attrs: nounwind uwtable
define internal void @connUnixAcceptHandler(ptr noundef %0, i32 noundef %1, ptr readnone captures(none) %2, i32 %3) #0 {
  %5 = load i32, ptr getelementptr inbounds nuw (i8, ptr @server, i64 6512), align 8, !tbaa !10
  %.not6 = icmp eq i32 %5, 0
  br i1 %.not6, label %.loopexit, label %.lr.ph

.lr.ph:                                           ; preds = %4, %21
  %.in = phi i32 [ %6, %21 ], [ %5, %4 ]
  %6 = add nsw i32 %.in, -1
  %7 = tail call i32 @anetUnixAccept(ptr noundef nonnull getelementptr inbounds nuw (i8, ptr @server, i64 1592), i32 noundef %1) #8
  %8 = icmp eq i32 %7, -1
  br i1 %8, label %9, label %16

9:                                                ; preds = %.lr.ph
  %10 = tail call ptr @__errno_location() #9
  %11 = load i32, ptr %10, align 4, !tbaa !40
  %12 = icmp eq i32 %11, 11
  %13 = load i32, ptr getelementptr inbounds nuw (i8, ptr @server, i64 6288), align 8
  %14 = icmp sgt i32 %13, 3
  %or.cond = select i1 %12, i1 true, i1 %14
  br i1 %or.cond, label %.loopexit, label %15

15:                                               ; preds = %9
  tail call void (i32, ptr, ...) @_serverLog(i32 noundef 3, ptr noundef nonnull @.str.1, ptr noundef nonnull getelementptr inbounds nuw (i8, ptr @server, i64 1592)) #8
  br label %.loopexit

16:                                               ; preds = %.lr.ph
  %17 = load i32, ptr getelementptr inbounds nuw (i8, ptr @server, i64 6288), align 8, !tbaa !41
  %18 = icmp sgt i32 %17, 1
  br i1 %18, label %21, label %19

19:                                               ; preds = %16
  %20 = load ptr, ptr getelementptr inbounds nuw (i8, ptr @server, i64 472), align 8, !tbaa !42
  tail call void (i32, ptr, ...) @_serverLog(i32 noundef 1, ptr noundef nonnull @.str.2, ptr noundef %20) #8
  br label %21

21:                                               ; preds = %16, %19
  %22 = tail call noalias dereferenceable_or_null(72) ptr @zcalloc(i64 noundef 72) #10
  store ptr @CT_Unix, ptr %22, align 8, !tbaa !43
  %23 = getelementptr inbounds nuw i8, ptr %22, i64 16
  %24 = getelementptr inbounds nuw i8, ptr %22, i64 24
  store i16 1024, ptr %24, align 8, !tbaa !46
  %25 = getelementptr inbounds nuw i8, ptr %22, i64 40
  store ptr %0, ptr %25, align 8, !tbaa !47
  store i32 %7, ptr %23, align 8, !tbaa !48
  %26 = getelementptr inbounds nuw i8, ptr %22, i64 8
  store i32 2, ptr %26, align 8, !tbaa !49
  tail call void @acceptCommonHandler(ptr noundef nonnull %22, i32 noundef 2048, ptr noundef null) #8
  %.not = icmp eq i32 %6, 0
  br i1 %.not, label %.loopexit, label %.lr.ph, !llvm.loop !50

.loopexit:                                        ; preds = %21, %4, %9, %15
  ret void
}